target datalayout = "e-m:e-p270:32:32-p271:32:32-p272:64:64-i64:64-i128:128-f80:128-n8:16:32:64-S128"
target triple = "x86_64-pc-linux-gnu"

@proto_register_mtp3mg.ett = internal global [5 x ptr] [ptr @ett_mtp3mg, ptr @ett_mtp3mg_fcm_apc, ptr @ett_mtp3mg_tfm_apc, ptr @ett_mtp3mg_rsm_apc, ptr @ett_mtp3mg_upu_apc], align 16
@.str.63 = private unnamed_addr constant [41 x i8] c"Message Transfer Part Level 3 Management\00", align 1
@.str.64 = private unnamed_addr constant [7 x i8] c"MTP3MG\00", align 1
@.str.65 = private unnamed_addr constant [7 x i8] c"mtp3mg\00", align 1
@proto_mtp3mg = internal global i32 0, align 4
@mtp3mg_handle = internal global ptr null, align 8

; Function Attrs: null_pointer_is_valid sspstrong uwtable
define hidden void @proto_register_mtp3mg() #0 {
  %1 = alloca ptr, align 8
  call void @llvm.lifetime.start.p0(i64 8, ptr %1) #3
  %2 = call i32 @proto_register_protocol(ptr noundef @.str.63, ptr noundef @.str.64, ptr noundef @.str.65)
  store i32 %2, ptr @proto_mtp3mg, align 4
  %3 = load i32, ptr @proto_mtp3mg, align 4
  %4 = call ptr @register_dissector(ptr noundef @.str.65, ptr noundef @dissect_mtp3mg, i32 noundef %3)
  store ptr %4, ptr @mtp3mg_handle, align 8
  %5 = load i32, ptr @proto_mtp3mg, align 4
  call void @proto_register_field_array(i32 noundef %5, ptr noundef @proto_register_mtp3mg.hf, i32 noundef 52)
  call void @proto_register_subtree_array(ptr noundef @proto_register_mtp3mg.ett, i32 noundef 5)
  %6 = load i32, ptr @proto_mtp3mg, align 4
  %7 = call ptr @expert_register_protocol(i32 noundef %6)
  store ptr %7, ptr %1, align 8
  %8 = load ptr, ptr %1, align 8
  call void @expert_register_field_array(ptr noundef %8, ptr noundef @proto_register_mtp3mg.ei, i32 noundef 1)
  call void @llvm.lifetime.end.p0(i64 8, ptr %1) #3
  ret void
}